; Function Attrs: mustprogress uwtable
define hidden void @_ZN2qe15expr_quant_elim7init_qeEv(ptr nocapture noundef nonnull align 8 dereferenceable(80) %this) local_unnamed_addr #3 align 2 personality ptr @__gxx_personality_v0 {
entry:
  %m_qe = getelementptr inbounds i8, ptr %this, i64 64
  %0 = load ptr, ptr %m_qe, align 8
  %tobool.not = icmp eq ptr %0, null
  br i1 %tobool.not, label %if.then, label %if.end

if.then:                                          ; preds = %entry
  %call = tail call noalias noundef ptr @_ZN6memory8allocateEm(i64 noundef 64)
  %1 = load ptr, ptr %this, align 8
  %m_fparams = getelementptr inbounds i8, ptr %this, i64 8
  %2 = load ptr, ptr %m_fparams, align 8
  store ptr getelementptr inbounds ({ [10 x ptr] }, ptr @_ZTVN2qe14quant_elim_newE, i64 0, i32 0, i64 2), ptr %call, align 8
  %m2.i = getelementptr inbounds i8, ptr %call, i64 8
  store ptr %1, ptr %m2.i, align 8
  %m_fparams.i = getelementptr inbounds i8, ptr %call, i64 16
  store ptr %2, ptr %m_fparams.i, align 8
  %m_assumption.i = getelementptr inbounds i8, ptr %call, i64 24
  store ptr null, ptr %m_assumption.i, align 8
  %m_manager.i.i = getelementptr inbounds i8, ptr %call, i64 32
  store ptr %1, ptr %m_manager.i.i, align 8
  %m_produce_models.i = getelementptr inbounds i8, ptr %call, i64 40
  %m_model.i = getelementptr inbounds i8, ptr %2, i64 755
  %3 = load i8, ptr %m_model.i, align 1
  %4 = and i8 %3, 1
  store i8 %4, ptr %m_produce_models.i, align 8
  %m_plugins.i = getelementptr inbounds i8, ptr %call, i64 48
  store ptr null, ptr %m_plugins.i, align 8
  %m_eliminate_variables_as_block.i = getelementptr inbounds i8, ptr %call, i64 56
  store i8 1, ptr %m_eliminate_variables_as_block.i, align 8
  store ptr %call, ptr %m_qe, align 8
  br label %if.end

if.end:                                           ; preds = %if.then, %entry
  ret void
}